; Function Attrs: mustprogress uwtable
define internal noundef double @"_ZNSt17_Function_handlerIFddEZN8QuantLib18AmericanPathPricerC1EN5boost10shared_ptrINS1_6PayoffEEEmNS1_14LsmBasisSystem14PolynomialTypeEE3$_0E9_M_invokeERKSt9_Any_dataOd"(ptr nocapture noundef nonnull readonly align 8 dereferenceable(16) %__functor, ptr nocapture noundef nonnull readonly align 8 dereferenceable(8) %__args) #4 align 2 {
entry:
  %call.val = load ptr, ptr %__functor, align 8, !tbaa !56
  %__args.val = load double, ptr %__args, align 8, !tbaa !55
  %payoff_.i.i.i.i = getelementptr inbounds nuw i8, ptr %call.val, i64 16
  %0 = load ptr, ptr %payoff_.i.i.i.i, align 8, !tbaa !27
  %cmp.not.i.i.i.i.i = icmp eq ptr %0, null
  br i1 %cmp.not.i.i.i.i.i, label %cond.false.i.i.i.i.i, label %"_ZSt10__invoke_rIdRZN8QuantLib18AmericanPathPricerC1EN5boost10shared_ptrINS0_6PayoffEEEmNS0_14LsmBasisSystem14PolynomialTypeEE3$_0JdEENSt9enable_ifIX16is_invocable_r_vIT_T0_DpT1_EESB_E4typeEOSC_DpOSD_.exit", !prof !54

cond.false.i.i.i.i.i:                             ; preds = %entry
  tail call void @_ZN5boost16assertion_failedEPKcS1_S1_l(ptr noundef nonnull @.str.15, ptr noundef nonnull @__PRETTY_FUNCTION__._ZNK5boost10shared_ptrIN8QuantLib6PayoffEEdeEv, ptr noundef nonnull @.str.16, i64 noundef 778)
  %.pre.i.i.i.i.i = load ptr, ptr %payoff_.i.i.i.i, align 8, !tbaa !27
  br label %"_ZSt10__invoke_rIdRZN8QuantLib18AmericanPathPricerC1EN5boost10shared_ptrINS0_6PayoffEEEmNS0_14LsmBasisSystem14PolynomialTypeEE3$_0JdEENSt9enable_ifIX16is_invocable_r_vIT_T0_DpT1_EESB_E4typeEOSC_DpOSD_.exit"

"_ZSt10__invoke_rIdRZN8QuantLib18AmericanPathPricerC1EN5boost10shared_ptrINS0_6PayoffEEEmNS0_14LsmBasisSystem14PolynomialTypeEE3$_0JdEENSt9enable_ifIX16is_invocable_r_vIT_T0_DpT1_EESB_E4typeEOSC_DpOSD_.exit": ; preds = %entry, %cond.false.i.i.i.i.i
  %1 = phi ptr [ %0, %entry ], [ %.pre.i.i.i.i.i, %cond.false.i.i.i.i.i ]
  %scalingValue_.i.i.i.i = getelementptr inbounds nuw i8, ptr %call.val, i64 8
  %2 = load double, ptr %scalingValue_.i.i.i.i, align 8, !tbaa !18
  %div.i.i.i.i = fdiv double %__args.val, %2
  %vtable.i.i.i.i = load ptr, ptr %1, align 8, !tbaa !14
  %vfn.i.i.i.i = getelementptr inbounds i8, ptr %vtable.i.i.i.i, i64 32
  %3 = load ptr, ptr %vfn.i.i.i.i, align 8
  %call2.i.i.i.i = tail call noundef double %3(ptr noundef nonnull align 8 dereferenceable(8) %1, double noundef %div.i.i.i.i)
  ret double %call2.i.i.i.i
}